; Function Attrs: inlinehint nounwind uwtable
define internal fastcc noalias nonnull ptr @lean_alloc_closure(ptr noundef %0, i32 noundef range(i32 3, 11) %1, i32 noundef range(i32 0, 4) %2) unnamed_addr #0 {
  %4 = shl nuw nsw i32 %2, 3
  %narrow = add nuw nsw i32 %4, 24
  tail call void @lean_inc_heartbeat() #4
  %5 = zext nneg i32 %narrow to i64
  %6 = tail call noalias ptr @mi_malloc_small(i64 noundef %5) #4
  %7 = icmp eq ptr %6, null
  br i1 %7, label %8, label %lean_alloc_small_object.exit

8:                                                ; preds = %3
  tail call void @lean_internal_panic_out_of_memory() #5
  unreachable

lean_alloc_small_object.exit:                     ; preds = %3
  %9 = getelementptr inbounds nuw i8, ptr %6, i64 4
  store i32 1, ptr %6, align 4, !tbaa !4
  %10 = or disjoint i32 %narrow, -184549376
  store i32 %10, ptr %9, align 4
  %11 = getelementptr inbounds nuw i8, ptr %6, i64 8
  store ptr %0, ptr %11, align 8, !tbaa !9
  %12 = trunc nuw nsw i32 %1 to i16
  %13 = getelementptr inbounds nuw i8, ptr %6, i64 16
  store i16 %12, ptr %13, align 8, !tbaa !14
  %14 = trunc nuw nsw i32 %2 to i16
  %15 = getelementptr inbounds nuw i8, ptr %6, i64 18
  store i16 %14, ptr %15, align 2, !tbaa !14
  ret ptr %6
}